libmosquittopp.so.1 libmosquittopp1 #MINVER#
 _ZN6mosqpp11lib_cleanupEv@Base 1.0
 _ZN6mosqpp11lib_versionEPiS0_S0_@Base 1.0
 _ZN6mosqpp11mosquittopp10disconnectEv@Base 1.0
 _ZN6mosqpp11mosquittopp10loop_startEv@Base 1.0
 _ZN6mosqpp11mosquittopp10loop_writeEi@Base 1.0
 _ZN6mosqpp11mosquittopp10on_connectEi@Base 1.0
 _ZN6mosqpp11mosquittopp10on_messageEPK17mosquitto_message@Base 1.0
 _ZN6mosqpp11mosquittopp10on_publishEi@Base 1.0
 _ZN6mosqpp11mosquittopp10want_writeEv@Base 1.0
 _ZN6mosqpp11mosquittopp10will_clearEv@Base 1.0
 _ZN6mosqpp11mosquittopp11tls_psk_setEPKcS2_S2_@Base 1.0
 _ZN6mosqpp11mosquittopp11unsubscribeEPiPKc@Base 1.0
 _ZN6mosqpp11mosquittopp12loop_foreverEii@Base 1.1
 _ZN6mosqpp11mosquittopp12on_subscribeEiiPKi@Base 1.0
 _ZN6mosqpp11mosquittopp12reinitialiseEPKcb@Base 1.0
 _ZN6mosqpp11mosquittopp12tls_opts_setEiPKcS2_@Base 1.0
 _ZN6mosqpp11mosquittopp13connect_asyncEPKcii@Base 1.0
 _ZN6mosqpp11mosquittopp13connect_asyncEPKciiS2_@Base 1.2
 _ZN6mosqpp11mosquittopp13on_disconnectEi@Base 1.0
 _ZN6mosqpp11mosquittopp13user_data_setEPv@Base 1.0
 _ZN6mosqpp11mosquittopp14on_unsubscribeEi@Base 1.0
 _ZN6mosqpp11mosquittopp15reconnect_asyncEv@Base 1.2
 _ZN6mosqpp11mosquittopp15username_pw_setEPKcS2_@Base 1.0
 _ZN6mosqpp11mosquittopp16tls_insecure_setEb@Base 1.2
 _ZN6mosqpp11mosquittopp17message_retry_setEj@Base 1.0
 _ZN6mosqpp11mosquittopp19reconnect_delay_setEjjb@Base 1.2
 _ZN6mosqpp11mosquittopp25max_inflight_messages_setEj@Base 1.2
 _ZN6mosqpp11mosquittopp4loopEii@Base 1.0
 _ZN6mosqpp11mosquittopp6on_logEiPKc@Base 1.0
 _ZN6mosqpp11mosquittopp6socketEv@Base 1.0
 _ZN6mosqpp11mosquittopp7connectEPKcii@Base 1.0
 _ZN6mosqpp11mosquittopp7connectEPKciiS2_@Base 1.2
 _ZN6mosqpp11mosquittopp7publishEPiPKciPKvib@Base 1.0
 _ZN6mosqpp11mosquittopp7tls_setEPKcS2_S2_S2_PFiPciiPvE@Base 1.0
 _ZN6mosqpp11mosquittopp8on_errorEv@Base 1.0
 _ZN6mosqpp11mosquittopp8will_setEPKciPKvib@Base 1.0
 _ZN6mosqpp11mosquittopp9loop_miscEv@Base 1.0
 _ZN6mosqpp11mosquittopp9loop_readEi@Base 1.0
 _ZN6mosqpp11mosquittopp9loop_stopEb@Base 1.0
 _ZN6mosqpp11mosquittopp9reconnectEv@Base 1.0
 _ZN6mosqpp11mosquittopp9subscribeEPiPKci@Base 1.0
 _ZN6mosqpp11mosquittoppC1EPKcb@Base 1.0
 _ZN6mosqpp11mosquittoppC2EPKcb@Base 1.0
 _ZN6mosqpp11mosquittoppD1Ev@Base 1.0
 _ZN6mosqpp11mosquittoppD2Ev@Base 1.0
 _ZN6mosqpp14connack_stringEi@Base 1.0
 _ZN6mosqpp17topic_matches_subEPKcS1_Pb@Base 1.0
 _ZN6mosqpp18sub_topic_tokeniseEPKcPPPcPi@Base 1.0
 _ZN6mosqpp21sub_topic_tokens_freeEPPPci@Base 1.0
 _ZN6mosqpp8lib_initEv@Base 1.0
 _ZN6mosqpp8strerrorEi@Base 1.0
 _ZTIN6mosqpp11mosquittoppE@Base 1.0
 _ZTSN6mosqpp11mosquittoppE@Base 1.0
 _ZTVN6mosqpp11mosquittoppE@Base 1.0
